target datalayout = "e-m:e-p270:32:32-p271:32:32-p272:64:64-i64:64-i128:128-f80:128-n8:16:32:64-S128"
target triple = "x86_64-pc-linux-gnu"

%"struct.gmx::IMDSocket" = type { %struct.sockaddr_in, i32 }
%struct.sockaddr_in = type { i16, i16, %struct.in_addr, [8 x i8] }
%struct.in_addr = type { i32 }

@.str = private unnamed_addr constant [5 x i8] c"sock\00", align 1
@.str.1 = private unnamed_addr constant [123 x i8] c"generated/home/dtcxzyw/WorkSpace/Projects/compilers/llvm-opt-benchmark/bench/gromacs/gromacs/src/gromacs/imd/imdsocket.cpp\00", align 1

; Function Attrs: inlinehint mustprogress uwtable
define internal void @_ZL14gmx_sfree_implIN3gmx9IMDSocketEEvPKcS3_iPT_(ptr noundef %0, ptr noundef %1, i32 noundef %2, ptr noundef %3) #3 {
  %5 = alloca ptr, align 8
  %6 = alloca ptr, align 8
  %7 = alloca i32, align 4
  %8 = alloca ptr, align 8
  store ptr %0, ptr %5, align 8, !tbaa !16
  store ptr %1, ptr %6, align 8, !tbaa !16
  store i32 %2, ptr %7, align 4, !tbaa !15
  store ptr %3, ptr %8, align 8, !tbaa !4
  %9 = load ptr, ptr %5, align 8, !tbaa !16
  %10 = load ptr, ptr %6, align 8, !tbaa !16
  %11 = load i32, ptr %7, align 4, !tbaa !15
  %12 = load ptr, ptr %8, align 8, !tbaa !4
  call void @_Z9save_freePKcS0_iPv(ptr noundef %9, ptr noundef %10, i32 noundef %11, ptr noundef %12)
  ret void
}

; Function Attrs: inlinehint mustprogress uwtable
define internal void @_ZL13gmx_snew_implIN3gmx9IMDSocketEEvPKcS3_iRPT_m(ptr noundef %0, ptr noundef %1, i32 noundef %2, ptr noundef nonnull align 8 dereferenceable(8) %3, i64 noundef %4) #3 {
  %6 = alloca ptr, align 8
  %7 = alloca ptr, align 8
  %8 = alloca i32, align 4
  %9 = alloca ptr, align 8
  %10 = alloca i64, align 8
  store ptr %0, ptr %6, align 8, !tbaa !16
  store ptr %1, ptr %7, align 8, !tbaa !16
  store i32 %2, ptr %8, align 4, !tbaa !15
  store ptr %3, ptr %9, align 8, !tbaa !18
  store i64 %4, ptr %10, align 8, !tbaa !21
  %11 = load ptr, ptr %6, align 8, !tbaa !16
  %12 = load ptr, ptr %7, align 8, !tbaa !16
  %13 = load i32, ptr %8, align 4, !tbaa !15
  %14 = load i64, ptr %10, align 8, !tbaa !21
  %15 = call noundef ptr @_Z11save_callocPKcS0_imm(ptr noundef %11, ptr noundef %12, i32 noundef %13, i64 noundef %14, i64 noundef 20)
  %16 = load ptr, ptr %9, align 8, !tbaa !18
  store ptr %15, ptr %16, align 8, !tbaa !4
  ret void
}

; Function Attrs: mustprogress uwtable
define noundef ptr @_ZN3gmx14imdsock_createEv() #1 {
  %1 = alloca ptr, align 8
  %2 = alloca ptr, align 8
  %3 = alloca i32, align 4
  call void @llvm.lifetime.start.p0(i64 8, ptr %2) #10
  store ptr null, ptr %2, align 8, !tbaa !4
  call void @_ZL13gmx_snew_implIN3gmx9IMDSocketEEvPKcS3_iRPT_m(ptr noundef @.str, ptr noundef @.str.1, i32 noundef 153, ptr noundef nonnull align 8 dereferenceable(8) %2, i64 noundef 1)
  %4 = call i32 @socket(i32 noundef 2, i32 noundef 1, i32 noundef 0) #10
  %5 = load ptr, ptr %2, align 8, !tbaa !4
  %6 = getelementptr inbounds nuw %"struct.gmx::IMDSocket", ptr %5, i32 0, i32 1
  store i32 %4, ptr %6, align 4, !tbaa !9
  %7 = icmp eq i32 %4, -1
  br i1 %7, label %8, label %13

8:                                                ; preds = %0
  %9 = call ptr @__errno_location() #11
  %10 = load i32, ptr %9, align 4, !tbaa !15
  %11 = call ptr @strerror(i32 noundef %10) #10
  call void @_ZN3gmxL15print_IMD_errorEPKciPc(ptr noundef @.str.1, i32 noundef 157, ptr noundef %11)
  %12 = load ptr, ptr %2, align 8, !tbaa !4
  call void @_ZL14gmx_sfree_implIN3gmx9IMDSocketEEvPKcS3_iPT_(ptr noundef @.str, ptr noundef @.str.1, i32 noundef 158, ptr noundef %12)
  store ptr null, ptr %1, align 8
  store i32 1, ptr %3, align 4
  br label %15

13:                                               ; preds = %0
  %14 = load ptr, ptr %2, align 8, !tbaa !4
  store ptr %14, ptr %1, align 8
  store i32 1, ptr %3, align 4
  br label %15

15:                                               ; preds = %13, %8
  call void @llvm.lifetime.end.p0(i64 8, ptr %2) #10
  %16 = load ptr, ptr %1, align 8
  ret ptr %16
}