; Function Attrs: mustprogress uwtable
define noundef ptr @_ZN3gmx14imdsock_createEv() local_unnamed_addr #1 {
  %1 = tail call noundef ptr @_Z11save_callocPKcS0_imm(ptr noundef nonnull @.str, ptr noundef nonnull @.str.1, i32 noundef 153, i64 noundef 1, i64 noundef 20)
  %2 = tail call i32 @socket(i32 noundef 2, i32 noundef 1, i32 noundef 0) #14
  %3 = getelementptr inbounds nuw i8, ptr %1, i64 16
  store i32 %2, ptr %3, align 4, !tbaa !4
  %4 = icmp eq i32 %2, -1
  br i1 %4, label %5, label %9

5:                                                ; preds = %0
  %6 = tail call ptr @__errno_location() #15
  %7 = load i32, ptr %6, align 4, !tbaa !12
  %8 = tail call ptr @strerror(i32 noundef %7) #14
  tail call fastcc void @_ZN3gmxL15print_IMD_errorEPKciPc(i32 noundef 157, ptr noundef %8)
  tail call void @_Z9save_freePKcS0_iPv(ptr noundef nonnull @.str, ptr noundef nonnull @.str.1, i32 noundef 158, ptr noundef nonnull %1)
  br label %9

9:                                                ; preds = %0, %5
  %.0 = phi ptr [ null, %5 ], [ %1, %0 ]
  ret ptr %.0
}